target datalayout = "e-m:e-p270:32:32-p271:32:32-p272:64:64-i64:64-i128:128-f80:128-n8:16:32:64-S128"
target triple = "x86_64-pc-linux-gnu"

; Function Attrs: nounwind uwtable
define dso_local void @pstrcpy(ptr noundef %0, i32 noundef %1, ptr noundef %2) #0 {
  %4 = alloca ptr, align 8
  %5 = alloca i32, align 4
  %6 = alloca ptr, align 8
  %7 = alloca i32, align 4
  %8 = alloca ptr, align 8
  store ptr %0, ptr %4, align 8
  store i32 %1, ptr %5, align 4
  store ptr %2, ptr %6, align 8
  %9 = load ptr, ptr %4, align 8
  store ptr %9, ptr %8, align 8
  %10 = load i32, ptr %5, align 4
  %11 = icmp sle i32 %10, 0
  br i1 %11, label %12, label %13

12:                                               ; preds = %3
  br label %37

13:                                               ; preds = %3
  br label %14

14:                                               ; preds = %30, %13
  %15 = load ptr, ptr %6, align 8
  %16 = getelementptr i8, ptr %15, i32 1
  store ptr %16, ptr %6, align 8
  %17 = load i8, ptr %15, align 1
  %18 = zext i8 %17 to i32
  store i32 %18, ptr %7, align 4
  %19 = load i32, ptr %7, align 4
  %20 = icmp eq i32 %19, 0
  br i1 %20, label %29, label %21

21:                                               ; preds = %14
  %22 = load ptr, ptr %8, align 8
  %23 = load ptr, ptr %4, align 8
  %24 = load i32, ptr %5, align 4
  %25 = sext i32 %24 to i64
  %26 = getelementptr i8, ptr %23, i64 %25
  %27 = getelementptr i8, ptr %26, i64 -1
  %28 = icmp uge ptr %22, %27
  br i1 %28, label %29, label %30

29:                                               ; preds = %21, %14
  br label %35

30:                                               ; preds = %21
  %31 = load i32, ptr %7, align 4
  %32 = trunc i32 %31 to i8
  %33 = load ptr, ptr %8, align 8
  %34 = getelementptr i8, ptr %33, i32 1
  store ptr %34, ptr %8, align 8
  store i8 %32, ptr %33, align 1
  br label %14

35:                                               ; preds = %29
  %36 = load ptr, ptr %8, align 8
  store i8 0, ptr %36, align 1
  br label %37

37:                                               ; preds = %35, %12
  ret void
}

; Function Attrs: nounwind uwtable
define dso_local ptr @pstrcat(ptr noundef %0, i32 noundef %1, ptr noundef %2) #0 {
  %4 = alloca ptr, align 8
  %5 = alloca i32, align 4
  %6 = alloca ptr, align 8
  %7 = alloca i32, align 4
  store ptr %0, ptr %4, align 8
  store i32 %1, ptr %5, align 4
  store ptr %2, ptr %6, align 8
  %8 = load ptr, ptr %4, align 8
  %9 = call i64 @strlen(ptr noundef %8) #7
  %10 = trunc i64 %9 to i32
  store i32 %10, ptr %7, align 4
  %11 = load i32, ptr %7, align 4
  %12 = load i32, ptr %5, align 4
  %13 = icmp slt i32 %11, %12
  br i1 %13, label %14, label %23

14:                                               ; preds = %3
  %15 = load ptr, ptr %4, align 8
  %16 = load i32, ptr %7, align 4
  %17 = sext i32 %16 to i64
  %18 = getelementptr i8, ptr %15, i64 %17
  %19 = load i32, ptr %5, align 4
  %20 = load i32, ptr %7, align 4
  %21 = sub i32 %19, %20
  %22 = load ptr, ptr %6, align 8
  call void @pstrcpy(ptr noundef %18, i32 noundef %21, ptr noundef %22)
  br label %23

23:                                               ; preds = %14, %3
  %24 = load ptr, ptr %4, align 8
  ret ptr %24
}