; Function Attrs: nofree nounwind memory(readwrite, inaccessiblemem: none) uwtable
define dso_local noundef ptr @pstrcat(ptr noundef returned %0, i32 noundef %1, ptr nocapture noundef readonly %2) local_unnamed_addr #1 {
  %4 = tail call i64 @strlen(ptr noundef nonnull dereferenceable(1) %0) #17
  %5 = trunc i64 %4 to i32
  %6 = icmp slt i32 %5, %1
  br i1 %6, label %7, label %pstrcpy.exit

7:                                                ; preds = %3
  %8 = sub i32 %1, %5
  %9 = icmp slt i32 %8, 1
  br i1 %9, label %pstrcpy.exit, label %.preheader.i

.preheader.i:                                     ; preds = %7
  %sext = shl i64 %4, 32
  %10 = ashr exact i64 %sext, 32
  %11 = getelementptr i8, ptr %0, i64 %10
  %12 = zext nneg i32 %8 to i64
  %13 = getelementptr i8, ptr %11, i64 %12
  %14 = getelementptr i8, ptr %13, i64 -1
  %15 = load i8, ptr %2, align 1
  %16 = icmp ne i8 %15, 0
  %.not12.i = icmp ugt ptr %14, %11
  %or.cond13.i = select i1 %16, i1 %.not12.i, i1 false
  br i1 %or.cond13.i, label %.lr.ph.i, label %._crit_edge.i

.lr.ph.i:                                         ; preds = %.preheader.i, %.lr.ph.i
  %17 = phi i8 [ %20, %.lr.ph.i ], [ %15, %.preheader.i ]
  %.015.i = phi ptr [ %19, %.lr.ph.i ], [ %11, %.preheader.i ]
  %.0914.i = phi ptr [ %18, %.lr.ph.i ], [ %2, %.preheader.i ]
  %18 = getelementptr i8, ptr %.0914.i, i64 1
  %19 = getelementptr i8, ptr %.015.i, i64 1
  store i8 %17, ptr %.015.i, align 1
  %20 = load i8, ptr %18, align 1
  %21 = icmp ne i8 %20, 0
  %.not.i = icmp ult ptr %19, %14
  %or.cond.i = select i1 %21, i1 %.not.i, i1 false
  br i1 %or.cond.i, label %.lr.ph.i, label %._crit_edge.i

._crit_edge.i:                                    ; preds = %.lr.ph.i, %.preheader.i
  %.0.lcssa.i = phi ptr [ %11, %.preheader.i ], [ %19, %.lr.ph.i ]
  store i8 0, ptr %.0.lcssa.i, align 1
  br label %pstrcpy.exit

pstrcpy.exit:                                     ; preds = %._crit_edge.i, %7, %3
  ret ptr %0
}